; Function Attrs: nounwind uwtable
define ptr @l_Lean_Omega_tidyCoeffs(ptr noundef %0, ptr noundef %1) local_unnamed_addr #1 {
  tail call void @lean_inc_heartbeat() #4
  %3 = tail call noalias ptr @mi_malloc_small(i64 noundef 24) #4
  %4 = icmp eq ptr %3, null
  br i1 %4, label %5, label %lean_alloc_ctor.exit

5:                                                ; preds = %2
  tail call void @lean_internal_panic_out_of_memory() #5
  unreachable

lean_alloc_ctor.exit:                             ; preds = %2
  %6 = getelementptr inbounds nuw i8, ptr %3, i64 4
  store i32 1, ptr %3, align 4, !tbaa !6
  store i32 131096, ptr %6, align 4
  %7 = getelementptr inbounds nuw i8, ptr %3, i64 8
  store ptr %0, ptr %7, align 8, !tbaa !11
  %8 = getelementptr inbounds nuw i8, ptr %3, i64 16
  store ptr %1, ptr %8, align 8, !tbaa !11
  %9 = tail call ptr @l_Lean_Omega_tidy(ptr noundef nonnull %3)
  %10 = getelementptr inbounds nuw i8, ptr %9, i64 16
  %11 = load ptr, ptr %10, align 8, !tbaa !11
  %12 = ptrtoint ptr %11 to i64
  %13 = and i64 %12, 1
  %.not = icmp eq i64 %13, 0
  br i1 %.not, label %14, label %lean_inc.exit

14:                                               ; preds = %lean_alloc_ctor.exit
  %.val.i = load i32, ptr %11, align 4, !tbaa !6
  %15 = icmp sgt i32 %.val.i, 0
  br i1 %15, label %16, label %18, !prof !5

16:                                               ; preds = %14
  %17 = add nuw i32 %.val.i, 1
  store i32 %17, ptr %11, align 4, !tbaa !6
  br label %lean_inc.exit

18:                                               ; preds = %14
  %.not.i9 = icmp eq i32 %.val.i, 0
  br i1 %.not.i9, label %lean_inc.exit, label %19

19:                                               ; preds = %18
  tail call void @lean_inc_ref_cold(ptr noundef nonnull %11) #4
  br label %lean_inc.exit

lean_inc.exit:                                    ; preds = %19, %18, %16, %lean_alloc_ctor.exit
  %20 = ptrtoint ptr %9 to i64
  %21 = and i64 %20, 1
  %.not10 = icmp eq i64 %21, 0
  br i1 %.not10, label %22, label %lean_dec.exit

22:                                               ; preds = %lean_inc.exit
  %23 = load i32, ptr %9, align 4, !tbaa !6
  %24 = icmp sgt i32 %23, 1
  br i1 %24, label %25, label %27, !prof !5

25:                                               ; preds = %22
  %26 = add nsw i32 %23, -1
  store i32 %26, ptr %9, align 4, !tbaa !6
  br label %lean_dec.exit

27:                                               ; preds = %22
  %.not.i = icmp eq i32 %23, 0
  br i1 %.not.i, label %lean_dec.exit, label %28

28:                                               ; preds = %27
  tail call void @lean_dec_ref_cold(ptr noundef nonnull %9) #4
  br label %lean_dec.exit

lean_dec.exit:                                    ; preds = %28, %27, %25, %lean_inc.exit
  ret ptr %11
}